; Function Attrs: mustprogress uwtable
define hidden noundef nonnull ptr @ncnn_mat_reshape_1d(ptr noundef %0, i32 noundef %1, ptr noundef readonly %2) local_unnamed_addr #1 personality ptr @__gxx_personality_v0 {
  %4 = tail call noalias noundef nonnull dereferenceable(72) ptr @_Znwm(i64 noundef 72) #24
  %.not = icmp eq ptr %2, null
  br i1 %.not, label %7, label %5

5:                                                ; preds = %3
  %6 = load ptr, ptr %2, align 8
  br label %7

7:                                                ; preds = %3, %5
  %8 = phi ptr [ %6, %5 ], [ null, %3 ]
  invoke void @_ZNK4ncnn3Mat7reshapeEiPNS_9AllocatorE(ptr dead_on_unwind nonnull writable sret(%"class.ncnn::Mat") align 8 %4, ptr noundef nonnull align 8 dereferenceable(72) %0, i32 noundef %1, ptr noundef %8)
          to label %9 unwind label %10

9:                                                ; preds = %7
  ret ptr %4

10:                                               ; preds = %7
  %11 = landingpad { ptr, i32 }
          cleanup
  tail call void @_ZdlPvm(ptr noundef nonnull %4, i64 noundef 72) #25
  resume { ptr, i32 } %11
}